; Function Attrs: nounwind uwtable
define internal void @_on_sighup(ptr readnone captures(none) %0, i32 %1, ptr readnone captures(none) %2) #0 {
  %4 = alloca i64, align 8
  %5 = alloca %union.pthread_attr_t, align 8
  %6 = tail call i32 @get_log_level() #15
  %7 = icmp sgt i32 %6, 2
  br i1 %7, label %8, label %9

8:                                                ; preds = %3
  tail call void (i32, ptr, ...) @log_var(i32 noundef 3, ptr noundef nonnull @.str.27) #15
  br label %9

9:                                                ; preds = %3, %8
  call void @llvm.lifetime.start.p0(i64 8, ptr nonnull %4) #15
  call void @llvm.lifetime.start.p0(i64 56, ptr nonnull %5) #15
  %10 = call i32 @pthread_attr_init(ptr noundef nonnull %5) #15
  %.not = icmp eq i32 %10, 0
  br i1 %.not, label %13, label %11

11:                                               ; preds = %9
  %12 = tail call ptr @__errno_location() #18
  store i32 %10, ptr %12, align 4
  call void (ptr, ...) @fatal(ptr noundef nonnull @.str.28) #16
  unreachable

13:                                               ; preds = %9
  %14 = call i32 @pthread_attr_setscope(ptr noundef nonnull %5, i32 noundef 0) #15
  %.not17 = icmp eq i32 %14, 0
  br i1 %.not17, label %18, label %15

15:                                               ; preds = %13
  %16 = tail call ptr @__errno_location() #18
  store i32 %14, ptr %16, align 4
  %17 = call i32 (ptr, ...) @error(ptr noundef nonnull @.str.29) #15
  br label %18

18:                                               ; preds = %15, %13
  %19 = call i32 @pthread_attr_setstacksize(ptr noundef nonnull %5, i64 noundef 1048576) #15
  %.not18 = icmp eq i32 %19, 0
  br i1 %.not18, label %23, label %20

20:                                               ; preds = %18
  %21 = tail call ptr @__errno_location() #18
  store i32 %19, ptr %21, align 4
  %22 = call i32 (ptr, ...) @error(ptr noundef nonnull @.str.30) #15
  br label %23

23:                                               ; preds = %20, %18
  %24 = call i32 @pthread_attr_setdetachstate(ptr noundef nonnull %5, i32 noundef 1) #15
  %.not19 = icmp eq i32 %24, 0
  br i1 %.not19, label %27, label %25

25:                                               ; preds = %23
  %26 = tail call ptr @__errno_location() #18
  store i32 %24, ptr %26, align 4
  call void (ptr, ...) @fatal(ptr noundef nonnull @.str.31, ptr noundef nonnull @.str.3) #16
  unreachable

27:                                               ; preds = %23
  %28 = call i32 @pthread_create(ptr noundef nonnull %4, ptr noundef nonnull %5, ptr noundef nonnull @_try_to_reconfig, ptr noundef null) #15
  %.not20 = icmp eq i32 %28, 0
  br i1 %.not20, label %31, label %29

29:                                               ; preds = %27
  %30 = tail call ptr @__errno_location() #18
  store i32 %28, ptr %30, align 4
  call void (ptr, ...) @fatal(ptr noundef nonnull @.str.32, ptr noundef nonnull @.str.3) #16
  unreachable

31:                                               ; preds = %27
  %32 = call i32 @pthread_attr_destroy(ptr noundef nonnull %5) #15
  %.not21 = icmp eq i32 %32, 0
  br i1 %.not21, label %36, label %33

33:                                               ; preds = %31
  %34 = tail call ptr @__errno_location() #18
  store i32 %32, ptr %34, align 4
  %35 = call i32 (ptr, ...) @error(ptr noundef nonnull @.str.33) #15
  br label %36

36:                                               ; preds = %33, %31
  call void @llvm.lifetime.end.p0(i64 56, ptr nonnull %5) #15
  call void @llvm.lifetime.end.p0(i64 8, ptr nonnull %4) #15
  ret void
}